target datalayout = "e-m:e-p270:32:32-p271:32:32-p272:64:64-i64:64-i128:128-f80:128-n8:16:32:64-S128"
target triple = "x86_64-pc-linux-gnu"

%struct.PaAlsaStream = type { %struct.PaUtilStreamRepresentation, %struct.PaUtilCpuLoadMeasurer, %struct.PaUtilBufferProcessor, %struct.PaUnixThread, i64, i64, i32, i32, i32, i32, ptr, i32, i32, i32, i32, %struct.PaUnixMutex, i32, double, double, %struct.PaAlsaStreamComponent, %struct.PaAlsaStreamComponent }
%struct.PaUtilStreamRepresentation = type { i64, ptr, ptr, ptr, ptr, ptr, %struct.PaStreamInfo }
%struct.PaStreamInfo = type { i32, double, double, double }
%struct.PaUtilCpuLoadMeasurer = type { double, double, double }
%struct.PaUtilBufferProcessor = type { i64, i64, i32, i32, i32, i32, i64, i32, i32, i32, i32, ptr, ptr, i32, i32, i32, i32, ptr, ptr, i64, i64, ptr, ptr, i64, ptr, ptr, i64, ptr, i64, i32, [2 x i64], [2 x ptr], i32, [2 x i64], [2 x ptr], %struct.PaUtilTriangularDitherGenerator, double, ptr, ptr }
%struct.PaUtilTriangularDitherGenerator = type { i32, i32, i32 }
%struct.PaUnixThread = type { i64, i32, i32, i32, %struct.PaUnixMutex, %union.pthread_cond_t, i32, i32 }
%union.pthread_cond_t = type { %struct.__pthread_cond_s }
%struct.__pthread_cond_s = type { %union.__atomic_wide_counter, %union.__atomic_wide_counter, [2 x i32], [2 x i32], i32, i32, [2 x i32] }
%union.__atomic_wide_counter = type { i64 }
%struct.PaUnixMutex = type { %union.pthread_mutex_t }
%union.pthread_mutex_t = type { %struct.__pthread_mutex_s }
%struct.__pthread_mutex_s = type { i32, i32, i32, i32, i32, i16, i16, %struct.__pthread_internal_list }
%struct.__pthread_internal_list = type { ptr, ptr }
%struct.PaAlsaStreamComponent = type { i64, i32, i32, i32, i32, i32, ptr, i32, i32, i32, i32, ptr, i64, i64, i32, i32, i32, ptr, i64, i32, ptr }

@paUtilErr_ = internal global i32 0, align 4
@alsa_snd_pcm_start = internal global ptr null, align 8
@alsa_snd_pcm_state = internal global ptr null, align 8
@alsa_snd_strerror = internal global ptr null, align 8
@paUnixMainThread = external global i64, align 8
@.str.217 = private unnamed_addr constant [189 x i8] c"Expression 'stream->playback.pcm' failed in 'generated/home/dtcxzyw/WorkSpace/Projects/compilers/llvm-opt-benchmark/bench/portaudio/portaudio/src/hostapi/alsa/pa_linux_alsa.c', line: 4514\0A\00", align 1
@.str.218 = private unnamed_addr constant [226 x i8] c"Expression 'PaAlsaStream_WaitForFrames( stream, &framesAvail, &xrun )' failed in 'generated/home/dtcxzyw/WorkSpace/Projects/compilers/llvm-opt-benchmark/bench/portaudio/portaudio/src/hostapi/alsa/pa_linux_alsa.c', line: 4538\0A\00", align 1
@.str.219 = private unnamed_addr constant [223 x i8] c"Expression 'PaAlsaStream_SetUpBuffers( stream, &framesGot, &xrun )' failed in 'generated/home/dtcxzyw/WorkSpace/Projects/compilers/llvm-opt-benchmark/bench/portaudio/portaudio/src/hostapi/alsa/pa_linux_alsa.c', line: 4541\0A\00", align 1
@.str.220 = private unnamed_addr constant [223 x i8] c"Expression 'PaAlsaStream_EndProcessing( stream, framesGot, &xrun )' failed in 'generated/home/dtcxzyw/WorkSpace/Projects/compilers/llvm-opt-benchmark/bench/portaudio/portaudio/src/hostapi/alsa/pa_linux_alsa.c', line: 4545\0A\00", align 1
@.str.221 = private unnamed_addr constant [208 x i8] c"Expression 'err = GetStreamWriteAvailable( stream )' failed in 'generated/home/dtcxzyw/WorkSpace/Projects/compilers/llvm-opt-benchmark/bench/portaudio/portaudio/src/hostapi/alsa/pa_linux_alsa.c', line: 4552\0A\00", align 1
@.str.222 = private unnamed_addr constant [211 x i8] c"Expression 'alsa_snd_pcm_start( stream->playback.pcm )' failed in 'generated/home/dtcxzyw/WorkSpace/Projects/compilers/llvm-opt-benchmark/bench/portaudio/portaudio/src/hostapi/alsa/pa_linux_alsa.c', line: 4559\0A\00", align 1

; Function Attrs: inlinehint nounwind willreturn memory(none) uwtable
define available_externally i32 @pthread_equal(i64 noundef %0, i64 noundef %1) #8 {
  %3 = alloca i64, align 8
  %4 = alloca i64, align 8
  store i64 %0, ptr %3, align 8, !tbaa !37
  store i64 %1, ptr %4, align 8, !tbaa !37
  %5 = load i64, ptr %3, align 8, !tbaa !37
  %6 = load i64, ptr %4, align 8, !tbaa !37
  %7 = icmp eq i64 %5, %6
  %8 = zext i1 %7 to i32
  ret i32 %8
}

; Function Attrs: nounwind uwtable
define internal i32 @WriteStream(ptr noundef %0, ptr noundef %1, i64 noundef %2) #0 {
  %4 = alloca i32, align 4
  %5 = alloca ptr, align 8
  %6 = alloca ptr, align 8
  %7 = alloca i64, align 8
  %8 = alloca i32, align 4
  %9 = alloca i64, align 8
  %10 = alloca ptr, align 8
  %11 = alloca i64, align 8
  %12 = alloca i64, align 8
  %13 = alloca ptr, align 8
  %14 = alloca ptr, align 8
  %15 = alloca i32, align 4
  %16 = alloca i64, align 8
  %17 = alloca i32, align 4
  %18 = alloca i32, align 4
  store ptr %0, ptr %5, align 8, !tbaa !32
  store ptr %1, ptr %6, align 8, !tbaa !32
  store i64 %2, ptr %7, align 8, !tbaa !37
  call void @llvm.lifetime.start.p0(i64 4, ptr %8) #17
  store i32 0, ptr %8, align 4, !tbaa !8
  call void @llvm.lifetime.start.p0(i64 8, ptr %9) #17
  call void @llvm.lifetime.start.p0(i64 8, ptr %10) #17
  %19 = load ptr, ptr %5, align 8, !tbaa !32
  store ptr %19, ptr %10, align 8, !tbaa !38
  call void @llvm.lifetime.start.p0(i64 8, ptr %11) #17
  call void @llvm.lifetime.start.p0(i64 8, ptr %12) #17
  call void @llvm.lifetime.start.p0(i64 8, ptr %13) #17
  call void @llvm.lifetime.start.p0(i64 8, ptr %14) #17
  %20 = load ptr, ptr %10, align 8, !tbaa !38
  %21 = getelementptr inbounds nuw %struct.PaAlsaStream, ptr %20, i32 0, i32 19
  %22 = getelementptr inbounds nuw %struct.PaAlsaStreamComponent, ptr %21, i32 0, i32 11
  %23 = load ptr, ptr %22, align 8, !tbaa !100
  store ptr %23, ptr %14, align 8, !tbaa !102
  br label %24

24:                                               ; preds = %3
  %25 = load ptr, ptr %10, align 8, !tbaa !38
  %26 = getelementptr inbounds nuw %struct.PaAlsaStream, ptr %25, i32 0, i32 20
  %27 = getelementptr inbounds nuw %struct.PaAlsaStreamComponent, ptr %26, i32 0, i32 11
  %28 = load ptr, ptr %27, align 8, !tbaa !101
  %29 = icmp eq ptr %28, null
  %30 = zext i1 %29 to i32
  %31 = sext i32 %30 to i64
  %32 = call i64 @llvm.expect.i64(i64 %31, i64 0)
  %33 = icmp ne i64 %32, 0
  br i1 %33, label %34, label %35

34:                                               ; preds = %24
  call void (ptr, ...) @PaUtil_DebugPrint(ptr noundef @.str.217)
  store i32 -9974, ptr %8, align 4, !tbaa !8
  br label %211

35:                                               ; preds = %24
  br label %36

36:                                               ; preds = %35
  br label %37

37:                                               ; preds = %36
  %38 = load ptr, ptr %10, align 8, !tbaa !38
  %39 = getelementptr inbounds nuw %struct.PaAlsaStream, ptr %38, i32 0, i32 19
  %40 = getelementptr inbounds nuw %struct.PaAlsaStreamComponent, ptr %39, i32 0, i32 11
  store ptr null, ptr %40, align 8, !tbaa !100
  %41 = load ptr, ptr %10, align 8, !tbaa !38
  %42 = getelementptr inbounds nuw %struct.PaAlsaStream, ptr %41, i32 0, i32 17
  %43 = load double, ptr %42, align 8, !tbaa !108
  %44 = fcmp ogt double %43, 0.000000e+00
  br i1 %44, label %45, label %48

45:                                               ; preds = %37
  store i32 -9980, ptr %8, align 4, !tbaa !8
  %46 = load ptr, ptr %10, align 8, !tbaa !38
  %47 = getelementptr inbounds nuw %struct.PaAlsaStream, ptr %46, i32 0, i32 17
  store double 0.000000e+00, ptr %47, align 8, !tbaa !108
  br label %48

48:                                               ; preds = %45, %37
  %49 = load ptr, ptr %10, align 8, !tbaa !38
  %50 = getelementptr inbounds nuw %struct.PaAlsaStream, ptr %49, i32 0, i32 20
  %51 = getelementptr inbounds nuw %struct.PaAlsaStreamComponent, ptr %50, i32 0, i32 3
  %52 = load i32, ptr %51, align 8, !tbaa !109
  %53 = icmp ne i32 %52, 0
  br i1 %53, label %54, label %56

54:                                               ; preds = %48
  %55 = load ptr, ptr %6, align 8, !tbaa !32
  store ptr %55, ptr %13, align 8, !tbaa !32
  br label %69

56:                                               ; preds = %48
  %57 = load ptr, ptr %10, align 8, !tbaa !38
  %58 = getelementptr inbounds nuw %struct.PaAlsaStream, ptr %57, i32 0, i32 20
  %59 = getelementptr inbounds nuw %struct.PaAlsaStreamComponent, ptr %58, i32 0, i32 17
  %60 = load ptr, ptr %59, align 8, !tbaa !110
  store ptr %60, ptr %13, align 8, !tbaa !32
  %61 = load ptr, ptr %13, align 8, !tbaa !32
  %62 = load ptr, ptr %6, align 8, !tbaa !32
  %63 = load ptr, ptr %10, align 8, !tbaa !38
  %64 = getelementptr inbounds nuw %struct.PaAlsaStream, ptr %63, i32 0, i32 20
  %65 = getelementptr inbounds nuw %struct.PaAlsaStreamComponent, ptr %64, i32 0, i32 1
  %66 = load i32, ptr %65, align 8, !tbaa !111
  %67 = sext i32 %66 to i64
  %68 = mul i64 8, %67
  call void @llvm.memcpy.p0.p0.i64(ptr align 1 %61, ptr align 1 %62, i64 %68, i1 false)
  br label %69

69:                                               ; preds = %56, %54
  br label %70

70:                                               ; preds = %203, %69
  %71 = load i64, ptr %7, align 8, !tbaa !37
  %72 = icmp ugt i64 %71, 0
  br i1 %72, label %73, label %204

73:                                               ; preds = %70
  call void @llvm.lifetime.start.p0(i64 4, ptr %15) #17
  store i32 0, ptr %15, align 4, !tbaa !8
  call void @llvm.lifetime.start.p0(i64 8, ptr %16) #17
  br label %74

74:                                               ; preds = %73
  %75 = load ptr, ptr %10, align 8, !tbaa !38
  %76 = call i32 @PaAlsaStream_WaitForFrames(ptr noundef %75, ptr noundef %12, ptr noundef %15)
  store i32 %76, ptr @paUtilErr_, align 4, !tbaa !8
  %77 = icmp slt i32 %76, 0
  %78 = zext i1 %77 to i32
  %79 = sext i32 %78 to i64
  %80 = call i64 @llvm.expect.i64(i64 %79, i64 0)
  %81 = icmp ne i64 %80, 0
  br i1 %81, label %82, label %84

82:                                               ; preds = %74
  call void (ptr, ...) @PaUtil_DebugPrint(ptr noundef @.str.218)
  %83 = load i32, ptr @paUtilErr_, align 4, !tbaa !8
  store i32 %83, ptr %8, align 4, !tbaa !8
  store i32 4, ptr %18, align 4
  br label %201

84:                                               ; preds = %74
  br label %85

85:                                               ; preds = %84
  br label %86

86:                                               ; preds = %85
  %87 = load i64, ptr %12, align 8, !tbaa !37
  %88 = load i64, ptr %7, align 8, !tbaa !37
  %89 = icmp ult i64 %87, %88
  br i1 %89, label %90, label %92

90:                                               ; preds = %86
  %91 = load i64, ptr %12, align 8, !tbaa !37
  br label %94

92:                                               ; preds = %86
  %93 = load i64, ptr %7, align 8, !tbaa !37
  br label %94

94:                                               ; preds = %92, %90
  %95 = phi i64 [ %91, %90 ], [ %93, %92 ]
  store i64 %95, ptr %11, align 8, !tbaa !37
  br label %96

96:                                               ; preds = %94
  %97 = load ptr, ptr %10, align 8, !tbaa !38
  %98 = call i32 @PaAlsaStream_SetUpBuffers(ptr noundef %97, ptr noundef %11, ptr noundef %15)
  store i32 %98, ptr @paUtilErr_, align 4, !tbaa !8
  %99 = icmp slt i32 %98, 0
  %100 = zext i1 %99 to i32
  %101 = sext i32 %100 to i64
  %102 = call i64 @llvm.expect.i64(i64 %101, i64 0)
  %103 = icmp ne i64 %102, 0
  br i1 %103, label %104, label %106

104:                                              ; preds = %96
  call void (ptr, ...) @PaUtil_DebugPrint(ptr noundef @.str.219)
  %105 = load i32, ptr @paUtilErr_, align 4, !tbaa !8
  store i32 %105, ptr %8, align 4, !tbaa !8
  store i32 4, ptr %18, align 4
  br label %201

106:                                              ; preds = %96
  br label %107

107:                                              ; preds = %106
  br label %108

108:                                              ; preds = %107
  %109 = load i64, ptr %11, align 8, !tbaa !37
  %110 = icmp ugt i64 %109, 0
  br i1 %110, label %111, label %133

111:                                              ; preds = %108
  %112 = load ptr, ptr %10, align 8, !tbaa !38
  %113 = getelementptr inbounds nuw %struct.PaAlsaStream, ptr %112, i32 0, i32 2
  %114 = load i64, ptr %11, align 8, !tbaa !37
  %115 = call i64 @PaUtil_CopyOutput(ptr noundef %113, ptr noundef %13, i64 noundef %114)
  store i64 %115, ptr %11, align 8, !tbaa !37
  br label %116

116:                                              ; preds = %111
  %117 = load ptr, ptr %10, align 8, !tbaa !38
  %118 = load i64, ptr %11, align 8, !tbaa !37
  %119 = call i32 @PaAlsaStream_EndProcessing(ptr noundef %117, i64 noundef %118, ptr noundef %15)
  store i32 %119, ptr @paUtilErr_, align 4, !tbaa !8
  %120 = icmp slt i32 %119, 0
  %121 = zext i1 %120 to i32
  %122 = sext i32 %121 to i64
  %123 = call i64 @llvm.expect.i64(i64 %122, i64 0)
  %124 = icmp ne i64 %123, 0
  br i1 %124, label %125, label %127

125:                                              ; preds = %116
  call void (ptr, ...) @PaUtil_DebugPrint(ptr noundef @.str.220)
  %126 = load i32, ptr @paUtilErr_, align 4, !tbaa !8
  store i32 %126, ptr %8, align 4, !tbaa !8
  store i32 4, ptr %18, align 4
  br label %201

127:                                              ; preds = %116
  br label %128

128:                                              ; preds = %127
  br label %129

129:                                              ; preds = %128
  %130 = load i64, ptr %11, align 8, !tbaa !37
  %131 = load i64, ptr %7, align 8, !tbaa !37
  %132 = sub i64 %131, %130
  store i64 %132, ptr %7, align 8, !tbaa !37
  br label %133

133:                                              ; preds = %129, %108
  br label %134

134:                                              ; preds = %133
  %135 = load ptr, ptr %10, align 8, !tbaa !38
  %136 = call i64 @GetStreamWriteAvailable(ptr noundef %135)
  store i64 %136, ptr %9, align 8, !tbaa !37
  %137 = trunc i64 %136 to i32
  store i32 %137, ptr @paUtilErr_, align 4, !tbaa !8
  %138 = icmp slt i32 %137, 0
  %139 = zext i1 %138 to i32
  %140 = sext i32 %139 to i64
  %141 = call i64 @llvm.expect.i64(i64 %140, i64 0)
  %142 = icmp ne i64 %141, 0
  br i1 %142, label %143, label %145

143:                                              ; preds = %134
  call void (ptr, ...) @PaUtil_DebugPrint(ptr noundef @.str.221)
  %144 = load i32, ptr @paUtilErr_, align 4, !tbaa !8
  store i32 %144, ptr %8, align 4, !tbaa !8
  store i32 4, ptr %18, align 4
  br label %201

145:                                              ; preds = %134
  br label %146

146:                                              ; preds = %145
  br label %147

147:                                              ; preds = %146
  %148 = load i64, ptr %9, align 8, !tbaa !37
  store i64 %148, ptr %12, align 8, !tbaa !37
  %149 = load ptr, ptr %10, align 8, !tbaa !38
  %150 = getelementptr inbounds nuw %struct.PaAlsaStream, ptr %149, i32 0, i32 20
  %151 = getelementptr inbounds nuw %struct.PaAlsaStreamComponent, ptr %150, i32 0, i32 13
  %152 = load i64, ptr %151, align 8, !tbaa !112
  %153 = load i64, ptr %12, align 8, !tbaa !37
  %154 = sub i64 %152, %153
  store i64 %154, ptr %16, align 8, !tbaa !37
  %155 = load ptr, ptr @alsa_snd_pcm_state, align 8, !tbaa !32
  %156 = load ptr, ptr %10, align 8, !tbaa !38
  %157 = getelementptr inbounds nuw %struct.PaAlsaStream, ptr %156, i32 0, i32 20
  %158 = getelementptr inbounds nuw %struct.PaAlsaStreamComponent, ptr %157, i32 0, i32 11
  %159 = load ptr, ptr %158, align 8, !tbaa !101
  %160 = call i32 %155(ptr noundef %159)
  %161 = icmp eq i32 %160, 2
  br i1 %161, label %162, label %200

162:                                              ; preds = %147
  %163 = load i64, ptr %16, align 8, !tbaa !37
  %164 = load ptr, ptr %10, align 8, !tbaa !38
  %165 = getelementptr inbounds nuw %struct.PaAlsaStream, ptr %164, i32 0, i32 20
  %166 = getelementptr inbounds nuw %struct.PaAlsaStreamComponent, ptr %165, i32 0, i32 12
  %167 = load i64, ptr %166, align 8, !tbaa !113
  %168 = icmp uge i64 %163, %167
  br i1 %168, label %169, label %200

169:                                              ; preds = %162
  br label %170

170:                                              ; preds = %169
  call void @llvm.lifetime.start.p0(i64 4, ptr %17) #17
  %171 = load ptr, ptr @alsa_snd_pcm_start, align 8, !tbaa !32
  %172 = load ptr, ptr %10, align 8, !tbaa !38
  %173 = getelementptr inbounds nuw %struct.PaAlsaStream, ptr %172, i32 0, i32 20
  %174 = getelementptr inbounds nuw %struct.PaAlsaStreamComponent, ptr %173, i32 0, i32 11
  %175 = load ptr, ptr %174, align 8, !tbaa !101
  %176 = call i32 %171(ptr noundef %175)
  store i32 %176, ptr %17, align 4, !tbaa !8
  %177 = icmp slt i32 %176, 0
  %178 = zext i1 %177 to i32
  %179 = sext i32 %178 to i64
  %180 = call i64 @llvm.expect.i64(i64 %179, i64 0)
  %181 = icmp ne i64 %180, 0
  br i1 %181, label %182, label %194

182:                                              ; preds = %170
  %183 = call i64 @pthread_self() #20
  %184 = load i64, ptr @paUnixMainThread, align 8, !tbaa !37
  %185 = call i32 @pthread_equal(i64 noundef %183, i64 noundef %184) #20
  %186 = icmp ne i32 %185, 0
  br i1 %186, label %187, label %193

187:                                              ; preds = %182
  %188 = load i32, ptr %17, align 4, !tbaa !8
  %189 = sext i32 %188 to i64
  %190 = load ptr, ptr @alsa_snd_strerror, align 8, !tbaa !32
  %191 = load i32, ptr %17, align 4, !tbaa !8
  %192 = call ptr %190(i32 noundef %191)
  call void @PaUtil_SetLastHostErrorInfo(i32 noundef 8, i64 noundef %189, ptr noundef %192)
  br label %193

193:                                              ; preds = %187, %182
  call void (ptr, ...) @PaUtil_DebugPrint(ptr noundef @.str.222)
  store i32 -9999, ptr %8, align 4, !tbaa !8
  store i32 4, ptr %18, align 4
  br label %195

194:                                              ; preds = %170
  store i32 0, ptr %18, align 4
  br label %195

195:                                              ; preds = %193, %194
  call void @llvm.lifetime.end.p0(i64 4, ptr %17) #17
  %196 = load i32, ptr %18, align 4
  switch i32 %196, label %201 [
    i32 0, label %197
  ]

197:                                              ; preds = %195
  br label %198

198:                                              ; preds = %197
  br label %199

199:                                              ; preds = %198
  br label %200

200:                                              ; preds = %199, %162, %147
  store i32 0, ptr %18, align 4
  br label %201

201:                                              ; preds = %143, %125, %104, %82, %200, %195
  call void @llvm.lifetime.end.p0(i64 8, ptr %16) #17
  call void @llvm.lifetime.end.p0(i64 4, ptr %15) #17
  %202 = load i32, ptr %18, align 4
  switch i32 %202, label %212 [
    i32 0, label %203
    i32 4, label %211
  ]

203:                                              ; preds = %201
  br label %70, !llvm.loop !114

204:                                              ; preds = %70
  br label %205

205:                                              ; preds = %211, %204
  %206 = load ptr, ptr %14, align 8, !tbaa !102
  %207 = load ptr, ptr %10, align 8, !tbaa !38
  %208 = getelementptr inbounds nuw %struct.PaAlsaStream, ptr %207, i32 0, i32 19
  %209 = getelementptr inbounds nuw %struct.PaAlsaStreamComponent, ptr %208, i32 0, i32 11
  store ptr %206, ptr %209, align 8, !tbaa !100
  %210 = load i32, ptr %8, align 4, !tbaa !8
  store i32 %210, ptr %4, align 4
  store i32 1, ptr %18, align 4
  br label %212

211:                                              ; preds = %201, %34
  br label %205

212:                                              ; preds = %205, %201
  call void @llvm.lifetime.end.p0(i64 8, ptr %14) #17
  call void @llvm.lifetime.end.p0(i64 8, ptr %13) #17
  call void @llvm.lifetime.end.p0(i64 8, ptr %12) #17
  call void @llvm.lifetime.end.p0(i64 8, ptr %11) #17
  call void @llvm.lifetime.end.p0(i64 8, ptr %10) #17
  call void @llvm.lifetime.end.p0(i64 8, ptr %9) #17
  call void @llvm.lifetime.end.p0(i64 4, ptr %8) #17
  %213 = load i32, ptr %4, align 4
  ret i32 %213
}