; Function Attrs: nounwind uwtable
define internal i32 @WriteStream(ptr noundef %0, ptr noundef %1, i64 noundef %2) #2 {
  %4 = alloca i64, align 8
  %5 = alloca i64, align 8
  %6 = alloca ptr, align 8
  %7 = alloca i32, align 4
  call void @llvm.lifetime.start.p0(i64 8, ptr nonnull %4) #25
  call void @llvm.lifetime.start.p0(i64 8, ptr nonnull %5) #25
  call void @llvm.lifetime.start.p0(i64 8, ptr nonnull %6) #25
  %8 = getelementptr inbounds nuw i8, ptr %0, i64 704
  %9 = load ptr, ptr %8, align 8, !tbaa !129
  %10 = getelementptr inbounds nuw i8, ptr %0, i64 832
  %11 = load ptr, ptr %10, align 8, !tbaa !130
  %12 = icmp eq ptr %11, null
  br i1 %12, label %13, label %14, !prof !9

13:                                               ; preds = %3
  tail call void (ptr, ...) @PaUtil_DebugPrint(ptr noundef nonnull @.str.217) #25
  br label %.loopexit

14:                                               ; preds = %3
  store ptr null, ptr %8, align 8, !tbaa !129
  %15 = getelementptr inbounds nuw i8, ptr %0, i64 632
  %16 = load double, ptr %15, align 8, !tbaa !141
  %17 = fcmp ogt double %16, 0.000000e+00
  br i1 %17, label %18, label %19

18:                                               ; preds = %14
  store double 0.000000e+00, ptr %15, align 8, !tbaa !141
  br label %19

19:                                               ; preds = %18, %14
  %.036 = phi i32 [ -9980, %18 ], [ 0, %14 ]
  %20 = getelementptr inbounds nuw i8, ptr %0, i64 792
  %21 = load i32, ptr %20, align 8, !tbaa !142
  %.not = icmp eq i32 %21, 0
  br i1 %.not, label %22, label %29

22:                                               ; preds = %19
  %23 = getelementptr inbounds nuw i8, ptr %0, i64 872
  %24 = load ptr, ptr %23, align 8, !tbaa !143
  %25 = getelementptr inbounds nuw i8, ptr %0, i64 784
  %26 = load i32, ptr %25, align 8, !tbaa !144
  %27 = sext i32 %26 to i64
  %28 = shl nsw i64 %27, 3
  tail call void @llvm.memcpy.p0.p0.i64(ptr align 1 %24, ptr align 1 %1, i64 %28, i1 false)
  br label %29

29:                                               ; preds = %19, %22
  %.sink = phi ptr [ %24, %22 ], [ %1, %19 ]
  store ptr %.sink, ptr %6, align 8, !tbaa !7
  %.not4156 = icmp eq i64 %2, 0
  br i1 %.not4156, label %.loopexit, label %.lr.ph

.lr.ph:                                           ; preds = %29
  %30 = getelementptr inbounds nuw i8, ptr %0, i64 104
  %31 = getelementptr inbounds nuw i8, ptr %0, i64 848
  %32 = getelementptr inbounds nuw i8, ptr %0, i64 840
  br label %33

33:                                               ; preds = %.lr.ph, %select.unfold
  %.03457 = phi i64 [ %2, %.lr.ph ], [ %.2, %select.unfold ]
  call void @llvm.lifetime.start.p0(i64 4, ptr nonnull %7) #25
  store i32 0, ptr %7, align 4, !tbaa !3
  %34 = call fastcc i32 @PaAlsaStream_WaitForFrames(ptr noundef nonnull %0, ptr noundef %5, ptr noundef %7)
  store i32 %34, ptr @paUtilErr_, align 4, !tbaa !3
  %35 = icmp slt i32 %34, 0
  br i1 %35, label %.thread, label %36, !prof !9

36:                                               ; preds = %33
  %37 = load i64, ptr %5, align 8, !tbaa !108
  %38 = call i64 @llvm.umin.i64(i64 %37, i64 %.03457)
  store i64 %38, ptr %4, align 8, !tbaa !108
  %39 = call fastcc i32 @PaAlsaStream_SetUpBuffers(ptr noundef nonnull %0, ptr noundef %4, ptr noundef %7)
  store i32 %39, ptr @paUtilErr_, align 4, !tbaa !3
  %40 = icmp slt i32 %39, 0
  br i1 %40, label %.thread, label %41, !prof !9

41:                                               ; preds = %36
  %42 = load i64, ptr %4, align 8, !tbaa !108
  %.not42 = icmp eq i64 %42, 0
  br i1 %.not42, label %49, label %43

43:                                               ; preds = %41
  %44 = call i64 @PaUtil_CopyOutput(ptr noundef nonnull %30, ptr noundef nonnull %6, i64 noundef %42) #25
  store i64 %44, ptr %4, align 8, !tbaa !108
  %45 = call fastcc i32 @PaAlsaStream_EndProcessing(ptr noundef nonnull %0, i64 noundef %44, ptr noundef %7)
  store i32 %45, ptr @paUtilErr_, align 4, !tbaa !3
  %46 = icmp slt i32 %45, 0
  br i1 %46, label %.thread, label %47, !prof !9

47:                                               ; preds = %43
  %48 = sub i64 %.03457, %44
  br label %49

49:                                               ; preds = %41, %47
  %.2 = phi i64 [ %48, %47 ], [ %.03457, %41 ]
  %50 = call i64 @GetStreamWriteAvailable(ptr noundef nonnull %0)
  %51 = trunc i64 %50 to i32
  store i32 %51, ptr @paUtilErr_, align 4, !tbaa !3
  %52 = icmp slt i32 %51, 0
  br i1 %52, label %.thread, label %53, !prof !9

53:                                               ; preds = %49
  store i64 %50, ptr %5, align 8, !tbaa !108
  %54 = load i64, ptr %31, align 8, !tbaa !145
  %55 = load ptr, ptr %10, align 8, !tbaa !130
  %56 = call i32 @snd_pcm_state(ptr noundef %55) #25, !callees !139
  %57 = icmp eq i32 %56, 2
  br i1 %57, label %58, label %select.unfold

58:                                               ; preds = %53
  %59 = sub i64 %54, %50
  %60 = load i64, ptr %32, align 8, !tbaa !146
  %.not43 = icmp ult i64 %59, %60
  br i1 %.not43, label %select.unfold, label %61

61:                                               ; preds = %58
  %62 = load ptr, ptr %10, align 8, !tbaa !130
  %63 = call i32 @snd_pcm_start(ptr noundef %62) #25, !callees !140
  %64 = icmp sgt i32 %63, -1
  br i1 %64, label %select.unfold, label %65, !prof !35

65:                                               ; preds = %61
  %66 = tail call i64 @pthread_self() #28
  %67 = load i64, ptr @paUnixMainThread, align 8, !tbaa !108
  %.not55 = icmp eq i64 %66, %67
  br i1 %.not55, label %68, label %select.unfold.thread

68:                                               ; preds = %65
  %69 = sext i32 %63 to i64
  %70 = call ptr @snd_strerror(i32 noundef %63) #25, !callees !109
  call void @PaUtil_SetLastHostErrorInfo(i32 noundef 8, i64 noundef %69, ptr noundef %70) #25
  br label %select.unfold.thread

select.unfold.thread:                             ; preds = %68, %65
  call void (ptr, ...) @PaUtil_DebugPrint(ptr noundef nonnull @.str.222) #25
  call void @llvm.lifetime.end.p0(i64 4, ptr nonnull %7) #25
  br label %.loopexit

.thread:                                          ; preds = %49, %43, %36, %33
  %.str.218.sink = phi ptr [ @.str.218, %33 ], [ @.str.219, %36 ], [ @.str.220, %43 ], [ @.str.221, %49 ]
  call void (ptr, ...) @PaUtil_DebugPrint(ptr noundef nonnull %.str.218.sink) #25
  %.238.ph = load i32, ptr @paUtilErr_, align 4, !tbaa !3
  call void @llvm.lifetime.end.p0(i64 4, ptr nonnull %7) #25
  br label %.loopexit

select.unfold:                                    ; preds = %61, %53, %58
  call void @llvm.lifetime.end.p0(i64 4, ptr nonnull %7) #25
  %.not41 = icmp eq i64 %.2, 0
  br i1 %.not41, label %.loopexit, label %33

.loopexit:                                        ; preds = %select.unfold, %29, %13, %.thread, %select.unfold.thread
  %.5 = phi i32 [ -9974, %13 ], [ %.238.ph, %.thread ], [ -9999, %select.unfold.thread ], [ %.036, %29 ], [ %.036, %select.unfold ]
  store ptr %9, ptr %8, align 8, !tbaa !129
  call void @llvm.lifetime.end.p0(i64 8, ptr nonnull %6) #25
  call void @llvm.lifetime.end.p0(i64 8, ptr nonnull %5) #25
  call void @llvm.lifetime.end.p0(i64 8, ptr nonnull %4) #25
  ret i32 %.5
}